; Function Attrs: nounwind uwtable
define noalias noundef ptr @Wlc_NtkCleanObjects(ptr noundef %0, ptr noundef readonly captures(none) %1) local_unnamed_addr #0 {
  %3 = tail call noalias dereferenceable_or_null(16) ptr @malloc(i64 noundef 16) #25
  %4 = getelementptr inbounds nuw i8, ptr %3, i64 4
  store i32 0, ptr %4, align 4, !tbaa !26
  store i32 16, ptr %3, align 8, !tbaa !25
  %5 = tail call noalias dereferenceable_or_null(64) ptr @malloc(i64 noundef 64) #25
  %6 = getelementptr inbounds nuw i8, ptr %3, i64 8
  store ptr %5, ptr %6, align 8, !tbaa !3
  tail call void @Wlc_NtkSetRefs(ptr noundef %0) #26
  %7 = getelementptr i8, ptr %1, i64 4
  %.val1415 = load i32, ptr %7, align 4, !tbaa !26
  %8 = icmp sgt i32 %.val1415, 0
  br i1 %8, label %.lr.ph, label %.critedge

.lr.ph:                                           ; preds = %2
  %9 = getelementptr i8, ptr %1, i64 8
  %10 = getelementptr i8, ptr %0, i64 640
  br label %11

11:                                               ; preds = %.lr.ph, %40
  %.val1421 = phi i32 [ %.val1415, %.lr.ph ], [ %.val14, %40 ]
  %12 = phi ptr [ %5, %.lr.ph ], [ %.pre.i19, %40 ]
  %indvars.iv = phi i64 [ 0, %.lr.ph ], [ %indvars.iv.next, %40 ]
  %.val = load ptr, ptr %9, align 8, !tbaa !3
  %13 = getelementptr inbounds nuw i32, ptr %.val, i64 %indvars.iv
  %14 = load i32, ptr %13, align 4, !tbaa !10
  %.val12 = load ptr, ptr %10, align 8, !tbaa !11
  %15 = sext i32 %14 to i64
  %16 = getelementptr inbounds %struct.Wlc_Obj_t_, ptr %.val12, i64 %15
  %17 = tail call i32 @Wlc_ObjCheckIsEmpty_rec(ptr noundef %0, ptr noundef %16)
  %.not = icmp eq i32 %17, 0
  br i1 %.not, label %18, label %40

18:                                               ; preds = %11
  %19 = load i32, ptr %4, align 4, !tbaa !26
  %20 = load i32, ptr %3, align 8, !tbaa !25
  %21 = icmp eq i32 %19, %20
  br i1 %21, label %22, label %Vec_IntPush.exit

22:                                               ; preds = %18
  %23 = icmp slt i32 %19, 16
  br i1 %23, label %24, label %29

24:                                               ; preds = %22
  %.not9.i.i = icmp eq ptr %12, null
  br i1 %.not9.i.i, label %27, label %25

25:                                               ; preds = %24
  %26 = tail call dereferenceable_or_null(64) ptr @realloc(ptr noundef nonnull %12, i64 noundef 64) #27
  br label %Vec_IntPush.exit.sink.split

27:                                               ; preds = %24
  %28 = tail call noalias dereferenceable_or_null(64) ptr @malloc(i64 noundef 64) #25
  br label %Vec_IntPush.exit.sink.split

29:                                               ; preds = %22
  %30 = shl nuw nsw i32 %19, 1
  %.not9.i9.i = icmp eq ptr %12, null
  %31 = zext nneg i32 %30 to i64
  %32 = shl nuw nsw i64 %31, 2
  br i1 %.not9.i9.i, label %35, label %33

33:                                               ; preds = %29
  %34 = tail call ptr @realloc(ptr noundef nonnull %12, i64 noundef %32) #27
  br label %Vec_IntPush.exit.sink.split

35:                                               ; preds = %29
  %36 = tail call noalias ptr @malloc(i64 noundef %32) #25
  br label %Vec_IntPush.exit.sink.split

Vec_IntPush.exit.sink.split:                      ; preds = %33, %35, %25, %27
  %.sink23 = phi ptr [ %26, %25 ], [ %28, %27 ], [ %34, %33 ], [ %36, %35 ]
  %.sink = phi i32 [ 16, %25 ], [ 16, %27 ], [ %30, %33 ], [ %30, %35 ]
  store ptr %.sink23, ptr %6, align 8, !tbaa !3
  store i32 %.sink, ptr %3, align 8, !tbaa !25
  br label %Vec_IntPush.exit

Vec_IntPush.exit:                                 ; preds = %Vec_IntPush.exit.sink.split, %18
  %.pre.i20 = phi ptr [ %12, %18 ], [ %.sink23, %Vec_IntPush.exit.sink.split ]
  %37 = add nsw i32 %19, 1
  store i32 %37, ptr %4, align 4, !tbaa !26
  %38 = sext i32 %19 to i64
  %39 = getelementptr inbounds i32, ptr %.pre.i20, i64 %38
  store i32 %14, ptr %39, align 4, !tbaa !10
  %.val14.pre = load i32, ptr %7, align 4, !tbaa !26
  br label %40

40:                                               ; preds = %11, %Vec_IntPush.exit
  %.val14 = phi i32 [ %.val1421, %11 ], [ %.val14.pre, %Vec_IntPush.exit ]
  %.pre.i19 = phi ptr [ %12, %11 ], [ %.pre.i20, %Vec_IntPush.exit ]
  %indvars.iv.next = add nuw nsw i64 %indvars.iv, 1
  %41 = sext i32 %.val14 to i64
  %42 = icmp slt i64 %indvars.iv.next, %41
  br i1 %42, label %11, label %.critedge, !llvm.loop !49

.critedge:                                        ; preds = %40, %2
  ret ptr %3
}